; Function Attrs: nounwind sspstrong uwtable
define dso_local noundef i64 @rb_detach_process(i32 noundef %0) local_unnamed_addr #1 {
  %2 = sext i32 %0 to i64
  %3 = inttoptr i64 %2 to ptr
  %4 = tail call i64 @rb_thread_create(ptr noundef nonnull @detach_process_watcher, ptr noundef %3) #27
  %5 = load i64, ptr @id_pid, align 8, !tbaa !43
  %6 = shl nsw i64 %2, 1
  %7 = or disjoint i64 %6, 1
  %8 = tail call i64 @rb_thread_local_aset(i64 noundef %4, i64 noundef %5, i64 noundef %7) #27
  %9 = load i64, ptr @rb_cWaiter, align 8, !tbaa !43
  %10 = inttoptr i64 %4 to ptr
  %11 = getelementptr inbounds nuw i8, ptr %10, i64 8
  store i64 %9, ptr %11, align 8, !tbaa !43
  %12 = icmp eq i64 %9, 0
  %13 = and i64 %9, 7
  %14 = icmp ne i64 %13, 0
  %15 = or i1 %12, %14
  br i1 %15, label %RBASIC_SET_CLASS.exit, label %16

16:                                               ; preds = %1
  tail call void @rb_gc_writebarrier(i64 noundef %4, i64 noundef %9) #27
  br label %RBASIC_SET_CLASS.exit

RBASIC_SET_CLASS.exit:                            ; preds = %1, %16
  ret i64 %4
}